; Function Attrs: nounwind uwtable
define internal ptr @PyCArrayType_paramfunc(ptr noundef %0, ptr noundef %1) #0 {
  %3 = tail call ptr @PyCArgObject_new(ptr noundef %0) #17
  %4 = icmp eq ptr %3, null
  br i1 %4, label %16, label %5

5:                                                ; preds = %2
  %6 = getelementptr inbounds nuw i8, ptr %3, i64 24
  store i8 80, ptr %6, align 8, !tbaa !137
  %7 = getelementptr inbounds nuw i8, ptr %3, i64 16
  store ptr @ffi_type_pointer, ptr %7, align 16, !tbaa !138
  %8 = getelementptr inbounds nuw i8, ptr %1, i64 16
  %9 = load ptr, ptr %8, align 16, !tbaa !42
  %10 = getelementptr inbounds nuw i8, ptr %3, i64 32
  store ptr %9, ptr %10, align 16, !tbaa !23
  %11 = load i32, ptr %1, align 8, !tbaa !23
  %12 = icmp slt i32 %11, 0
  br i1 %12, label %_Py_NewRef.exit, label %13

13:                                               ; preds = %5
  %14 = add nuw i32 %11, 1
  store i32 %14, ptr %1, align 8, !tbaa !23
  br label %_Py_NewRef.exit

_Py_NewRef.exit:                                  ; preds = %5, %13
  %15 = getelementptr inbounds nuw i8, ptr %3, i64 48
  store ptr %1, ptr %15, align 16, !tbaa !120
  br label %16

16:                                               ; preds = %2, %_Py_NewRef.exit
  ret ptr %3
}